target datalayout = "e-m:e-p270:32:32-p271:32:32-p272:64:64-i64:64-i128:128-f80:128-n8:16:32:64-S128"
target triple = "x86_64-pc-linux-gnu"

%struct.archive_write = type { %struct.archive, i32, i64, i64, ptr, i64, ptr, ptr, ptr, ptr, ptr, i32, i32, ptr, ptr, ptr, ptr, ptr, ptr, ptr, ptr, ptr, ptr, ptr, ptr, ptr, ptr }
%struct.archive = type { i32, i32, ptr, i32, ptr, i32, i32, ptr, %struct.archive_string, ptr, i32, i32, ptr, ptr, i64, i64, i64, i8, i64 }
%struct.archive_string = type { ptr, i64, i64 }
%struct.archive_write_filter = type { i64, ptr, ptr, ptr, ptr, ptr, ptr, ptr, ptr, ptr, ptr, i32, i32, i32, i32 }
%struct.private_data = type { i32, i32, i32, i32, i32, i64, i64, i64, i64, i64, i64, i64, i64, ptr, %struct.ZSTD_outBuffer_s }
%struct.ZSTD_outBuffer_s = type { ptr, i64, i64 }

@.str = private unnamed_addr constant [30 x i8] c"archive_write_add_filter_zstd\00", align 1
@.str.1 = private unnamed_addr constant [14 x i8] c"Out of memory\00", align 1
@.str.2 = private unnamed_addr constant [5 x i8] c"zstd\00", align 1
@.str.3 = private unnamed_addr constant [42 x i8] c"Failed to allocate zstd compressor object\00", align 1

; Function Attrs: nounwind uwtable
define dso_local i32 @archive_write_add_filter_zstd(ptr noundef %0) #0 {
  %2 = alloca i32, align 4
  %3 = alloca ptr, align 8
  %4 = alloca ptr, align 8
  %5 = alloca ptr, align 8
  %6 = alloca ptr, align 8
  %7 = alloca i32, align 4
  %8 = alloca i32, align 4
  store ptr %0, ptr %3, align 8, !tbaa !4
  call void @llvm.lifetime.start.p0(i64 8, ptr %4) #8
  %9 = load ptr, ptr %3, align 8, !tbaa !4
  store ptr %9, ptr %4, align 8, !tbaa !9
  call void @llvm.lifetime.start.p0(i64 8, ptr %5) #8
  %10 = load ptr, ptr %3, align 8, !tbaa !4
  %11 = call ptr @__archive_write_allocate_filter(ptr noundef %10)
  store ptr %11, ptr %5, align 8, !tbaa !11
  call void @llvm.lifetime.start.p0(i64 8, ptr %6) #8
  br label %12

12:                                               ; preds = %1
  call void @llvm.lifetime.start.p0(i64 4, ptr %7) #8
  %13 = load ptr, ptr %4, align 8, !tbaa !9
  %14 = getelementptr inbounds nuw %struct.archive_write, ptr %13, i32 0, i32 0
  %15 = call i32 @__archive_check_magic(ptr noundef %14, i32 noundef -1329217314, i32 noundef 1, ptr noundef @.str)
  store i32 %15, ptr %7, align 4, !tbaa !13
  %16 = load i32, ptr %7, align 4, !tbaa !13
  %17 = icmp eq i32 %16, -30
  br i1 %17, label %18, label %19

18:                                               ; preds = %12
  store i32 -30, ptr %2, align 4
  store i32 1, ptr %8, align 4
  br label %20

19:                                               ; preds = %12
  store i32 0, ptr %8, align 4
  br label %20

20:                                               ; preds = %19, %18
  call void @llvm.lifetime.end.p0(i64 4, ptr %7) #8
  %21 = load i32, ptr %8, align 4
  switch i32 %21, label %81 [
    i32 0, label %22
  ]

22:                                               ; preds = %20
  br label %23

23:                                               ; preds = %22
  br label %24

24:                                               ; preds = %23
  %25 = call noalias ptr @calloc(i64 noundef 1, i64 noundef 120) #9
  store ptr %25, ptr %6, align 8, !tbaa !15
  %26 = load ptr, ptr %6, align 8, !tbaa !15
  %27 = icmp eq ptr %26, null
  br i1 %27, label %28, label %31

28:                                               ; preds = %24
  %29 = load ptr, ptr %4, align 8, !tbaa !9
  %30 = getelementptr inbounds nuw %struct.archive_write, ptr %29, i32 0, i32 0
  call void (ptr, i32, ptr, ...) @archive_set_error(ptr noundef %30, i32 noundef 12, ptr noundef @.str.1)
  store i32 -30, ptr %2, align 4
  store i32 1, ptr %8, align 4
  br label %81

31:                                               ; preds = %24
  %32 = load ptr, ptr %6, align 8, !tbaa !15
  %33 = load ptr, ptr %5, align 8, !tbaa !11
  %34 = getelementptr inbounds nuw %struct.archive_write_filter, ptr %33, i32 0, i32 9
  store ptr %32, ptr %34, align 8, !tbaa !17
  %35 = load ptr, ptr %5, align 8, !tbaa !11
  %36 = getelementptr inbounds nuw %struct.archive_write_filter, ptr %35, i32 0, i32 4
  store ptr @archive_compressor_zstd_open, ptr %36, align 8, !tbaa !21
  %37 = load ptr, ptr %5, align 8, !tbaa !11
  %38 = getelementptr inbounds nuw %struct.archive_write_filter, ptr %37, i32 0, i32 3
  store ptr @archive_compressor_zstd_options, ptr %38, align 8, !tbaa !22
  %39 = load ptr, ptr %5, align 8, !tbaa !11
  %40 = getelementptr inbounds nuw %struct.archive_write_filter, ptr %39, i32 0, i32 6
  store ptr @archive_compressor_zstd_flush, ptr %40, align 8, !tbaa !23
  %41 = load ptr, ptr %5, align 8, !tbaa !11
  %42 = getelementptr inbounds nuw %struct.archive_write_filter, ptr %41, i32 0, i32 7
  store ptr @archive_compressor_zstd_close, ptr %42, align 8, !tbaa !24
  %43 = load ptr, ptr %5, align 8, !tbaa !11
  %44 = getelementptr inbounds nuw %struct.archive_write_filter, ptr %43, i32 0, i32 8
  store ptr @archive_compressor_zstd_free, ptr %44, align 8, !tbaa !25
  %45 = load ptr, ptr %5, align 8, !tbaa !11
  %46 = getelementptr inbounds nuw %struct.archive_write_filter, ptr %45, i32 0, i32 11
  store i32 14, ptr %46, align 8, !tbaa !26
  %47 = load ptr, ptr %5, align 8, !tbaa !11
  %48 = getelementptr inbounds nuw %struct.archive_write_filter, ptr %47, i32 0, i32 10
  store ptr @.str.2, ptr %48, align 8, !tbaa !27
  %49 = load ptr, ptr %6, align 8, !tbaa !15
  %50 = getelementptr inbounds nuw %struct.private_data, ptr %49, i32 0, i32 0
  store i32 3, ptr %50, align 8, !tbaa !28
  %51 = load ptr, ptr %6, align 8, !tbaa !15
  %52 = getelementptr inbounds nuw %struct.private_data, ptr %51, i32 0, i32 1
  store i32 0, ptr %52, align 4, !tbaa !32
  %53 = load ptr, ptr %6, align 8, !tbaa !15
  %54 = getelementptr inbounds nuw %struct.private_data, ptr %53, i32 0, i32 2
  store i32 0, ptr %54, align 8, !tbaa !33
  %55 = load ptr, ptr %6, align 8, !tbaa !15
  %56 = getelementptr inbounds nuw %struct.private_data, ptr %55, i32 0, i32 4
  store i32 0, ptr %56, align 8, !tbaa !34
  %57 = load ptr, ptr %6, align 8, !tbaa !15
  %58 = getelementptr inbounds nuw %struct.private_data, ptr %57, i32 0, i32 5
  store i64 0, ptr %58, align 8, !tbaa !35
  %59 = load ptr, ptr %6, align 8, !tbaa !15
  %60 = getelementptr inbounds nuw %struct.private_data, ptr %59, i32 0, i32 6
  store i64 -1, ptr %60, align 8, !tbaa !36
  %61 = load ptr, ptr %6, align 8, !tbaa !15
  %62 = getelementptr inbounds nuw %struct.private_data, ptr %61, i32 0, i32 7
  store i64 0, ptr %62, align 8, !tbaa !37
  %63 = load ptr, ptr %6, align 8, !tbaa !15
  %64 = getelementptr inbounds nuw %struct.private_data, ptr %63, i32 0, i32 8
  store i64 -1, ptr %64, align 8, !tbaa !38
  %65 = load ptr, ptr %6, align 8, !tbaa !15
  %66 = getelementptr inbounds nuw %struct.private_data, ptr %65, i32 0, i32 10
  store i64 0, ptr %66, align 8, !tbaa !39
  %67 = load ptr, ptr %6, align 8, !tbaa !15
  %68 = getelementptr inbounds nuw %struct.private_data, ptr %67, i32 0, i32 11
  store i64 0, ptr %68, align 8, !tbaa !40
  %69 = call ptr @ZSTD_createCStream()
  %70 = load ptr, ptr %6, align 8, !tbaa !15
  %71 = getelementptr inbounds nuw %struct.private_data, ptr %70, i32 0, i32 13
  store ptr %69, ptr %71, align 8, !tbaa !41
  %72 = load ptr, ptr %6, align 8, !tbaa !15
  %73 = getelementptr inbounds nuw %struct.private_data, ptr %72, i32 0, i32 13
  %74 = load ptr, ptr %73, align 8, !tbaa !41
  %75 = icmp eq ptr %74, null
  br i1 %75, label %76, label %80

76:                                               ; preds = %31
  %77 = load ptr, ptr %6, align 8, !tbaa !15
  call void @free(ptr noundef %77) #8
  %78 = load ptr, ptr %4, align 8, !tbaa !9
  %79 = getelementptr inbounds nuw %struct.archive_write, ptr %78, i32 0, i32 0
  call void (ptr, i32, ptr, ...) @archive_set_error(ptr noundef %79, i32 noundef 12, ptr noundef @.str.3)
  store i32 -30, ptr %2, align 4
  store i32 1, ptr %8, align 4
  br label %81

80:                                               ; preds = %31
  store i32 0, ptr %2, align 4
  store i32 1, ptr %8, align 4
  br label %81

81:                                               ; preds = %80, %76, %28, %20
  call void @llvm.lifetime.end.p0(i64 8, ptr %6) #8
  call void @llvm.lifetime.end.p0(i64 8, ptr %5) #8
  call void @llvm.lifetime.end.p0(i64 8, ptr %4) #8
  %82 = load i32, ptr %2, align 4
  ret i32 %82
}