; Function Attrs: nounwind uwtable
define dso_local range(i32 -30, 1) i32 @archive_write_add_filter_zstd(ptr noundef %0) local_unnamed_addr #0 {
  %2 = tail call ptr @__archive_write_allocate_filter(ptr noundef %0) #10
  %3 = tail call i32 @__archive_check_magic(ptr noundef %0, i32 noundef -1329217314, i32 noundef 1, ptr noundef nonnull @.str) #10
  %.not = icmp eq i32 %3, -30
  br i1 %.not, label %22, label %4

4:                                                ; preds = %1
  %5 = tail call noalias dereferenceable_or_null(120) ptr @calloc(i64 noundef 1, i64 noundef 120) #11
  %6 = icmp eq ptr %5, null
  br i1 %6, label %.sink.split, label %7

7:                                                ; preds = %4
  %8 = getelementptr inbounds nuw i8, ptr %2, i64 72
  store ptr %5, ptr %8, align 8, !tbaa !4
  %9 = getelementptr inbounds nuw i8, ptr %2, i64 32
  store ptr @archive_compressor_zstd_open, ptr %9, align 8, !tbaa !14
  %10 = getelementptr inbounds nuw i8, ptr %2, i64 24
  store ptr @archive_compressor_zstd_options, ptr %10, align 8, !tbaa !15
  %11 = getelementptr inbounds nuw i8, ptr %2, i64 48
  store ptr @archive_compressor_zstd_flush, ptr %11, align 8, !tbaa !16
  %12 = getelementptr inbounds nuw i8, ptr %2, i64 56
  store ptr @archive_compressor_zstd_close, ptr %12, align 8, !tbaa !17
  %13 = getelementptr inbounds nuw i8, ptr %2, i64 64
  store ptr @archive_compressor_zstd_free, ptr %13, align 8, !tbaa !18
  %14 = getelementptr inbounds nuw i8, ptr %2, i64 88
  store i32 14, ptr %14, align 8, !tbaa !19
  %15 = getelementptr inbounds nuw i8, ptr %2, i64 80
  store ptr @.str.2, ptr %15, align 8, !tbaa !20
  store i32 3, ptr %5, align 8, !tbaa !21
  %16 = getelementptr inbounds nuw i8, ptr %5, i64 32
  store i64 -1, ptr %16, align 8, !tbaa !25
  %17 = getelementptr inbounds nuw i8, ptr %5, i64 48
  store i64 -1, ptr %17, align 8, !tbaa !26
  %18 = tail call ptr @ZSTD_createCStream() #10
  %19 = getelementptr inbounds nuw i8, ptr %5, i64 88
  store ptr %18, ptr %19, align 8, !tbaa !27
  %20 = icmp eq ptr %18, null
  br i1 %20, label %21, label %22

21:                                               ; preds = %7
  tail call void @free(ptr noundef nonnull %5) #10
  br label %.sink.split

.sink.split:                                      ; preds = %4, %21
  %.str.3.sink = phi ptr [ @.str.3, %21 ], [ @.str.1, %4 ]
  tail call void (ptr, i32, ptr, ...) @archive_set_error(ptr noundef %0, i32 noundef 12, ptr noundef nonnull %.str.3.sink) #10
  br label %22

22:                                               ; preds = %.sink.split, %7, %1
  %.1 = phi i32 [ -30, %1 ], [ 0, %7 ], [ -30, %.sink.split ]
  ret i32 %.1
}